target datalayout = "e-m:e-p270:32:32-p271:32:32-p272:64:64-i64:64-i128:128-f80:128-n8:16:32:64-S128"
target triple = "x86_64-pc-linux-gnu"

@_ZN4pbrtL5quietE = internal global i8 0, align 1
@.str.2 = private unnamed_addr constant [8 x i8] c"Warning\00", align 1

; Function Attrs: mustprogress uwtable
define dso_local void @_ZN4pbrt7WarningEPKNS_7FileLocEPKc(ptr noundef %0, ptr noundef %1) #1 {
  %3 = alloca ptr, align 8
  %4 = alloca ptr, align 8
  store ptr %0, ptr %3, align 8, !tbaa !15
  store ptr %1, ptr %4, align 8, !tbaa !17
  %5 = load i8, ptr @_ZN4pbrtL5quietE, align 1, !tbaa !13, !range !34, !noundef !35
  %6 = trunc i8 %5 to i1
  br i1 %6, label %7, label %8

7:                                                ; preds = %2
  br label %11

8:                                                ; preds = %2
  %9 = load ptr, ptr %3, align 8, !tbaa !15
  %10 = load ptr, ptr %4, align 8, !tbaa !17
  call void @_ZN4pbrtL12processErrorEPKcPKNS_7FileLocES1_(ptr noundef @.str.2, ptr noundef %9, ptr noundef %10)
  br label %11

11:                                               ; preds = %8, %7
  ret void
}