; Function Attrs: mustprogress uwtable
define dso_local void @_ZN4pbrt7WarningEPKNS_7FileLocEPKc(ptr noundef %0, ptr noundef %1) local_unnamed_addr #1 {
  %.b2 = load i1, ptr @_ZN4pbrtL5quietE, align 1
  br i1 %.b2, label %4, label %3

3:                                                ; preds = %2
  tail call fastcc void @_ZN4pbrtL12processErrorEPKcPKNS_7FileLocES1_(ptr noundef nonnull @.str.2, ptr noundef %0, ptr noundef %1)
  br label %4

4:                                                ; preds = %2, %3
  ret void
}